; Function Attrs: nounwind uwtable
define ptr @l_Lean_matchConstCtor___rarg___lambda__1(ptr noundef %0, ptr noundef %1, ptr noundef %2, ptr noundef %3, ptr noundef %4) #0 {
  %6 = tail call ptr @l_Lean_Environment_find_x3f(ptr noundef %4, ptr noundef %0, i8 noundef zeroext 0) #4
  %7 = ptrtoint ptr %6 to i64
  %8 = and i64 %7, 1
  %.not.i49 = icmp eq i64 %8, 0
  br i1 %.not.i49, label %12, label %9

9:                                                ; preds = %5
  %10 = lshr i64 %7, 1
  %11 = trunc i64 %10 to i32
  br label %lean_obj_tag.exit

12:                                               ; preds = %5
  %13 = getelementptr i8, ptr %6, i64 4
  %.val.i = load i32, ptr %13, align 4
  %14 = lshr i32 %.val.i, 24
  br label %lean_obj_tag.exit

lean_obj_tag.exit:                                ; preds = %9, %12
  %.0.i = phi i32 [ %11, %9 ], [ %14, %12 ]
  %15 = icmp eq i32 %.0.i, 0
  br i1 %15, label %16, label %36

16:                                               ; preds = %lean_obj_tag.exit
  %17 = ptrtoint ptr %3 to i64
  %18 = and i64 %17, 1
  %.not64 = icmp eq i64 %18, 0
  br i1 %.not64, label %19, label %lean_dec.exit34

19:                                               ; preds = %16
  %20 = load i32, ptr %3, align 4, !tbaa !4
  %21 = icmp sgt i32 %20, 1
  br i1 %21, label %22, label %24, !prof !9

22:                                               ; preds = %19
  %23 = add nsw i32 %20, -1
  store i32 %23, ptr %3, align 4, !tbaa !4
  br label %lean_dec.exit34

24:                                               ; preds = %19
  %.not.i = icmp eq i32 %20, 0
  br i1 %.not.i, label %lean_dec.exit34, label %25

25:                                               ; preds = %24
  tail call void @lean_dec_ref_cold(ptr noundef nonnull %3) #4
  br label %lean_dec.exit34

lean_dec.exit34:                                  ; preds = %25, %24, %22, %16
  %26 = ptrtoint ptr %2 to i64
  %27 = and i64 %26, 1
  %.not65 = icmp eq i64 %27, 0
  br i1 %.not65, label %28, label %lean_dec.exit33

28:                                               ; preds = %lean_dec.exit34
  %29 = load i32, ptr %2, align 4, !tbaa !4
  %30 = icmp sgt i32 %29, 1
  br i1 %30, label %31, label %33, !prof !9

31:                                               ; preds = %28
  %32 = add nsw i32 %29, -1
  store i32 %32, ptr %2, align 4, !tbaa !4
  br label %lean_dec.exit33

33:                                               ; preds = %28
  %.not.i35 = icmp eq i32 %29, 0
  br i1 %.not.i35, label %lean_dec.exit33, label %34

34:                                               ; preds = %33
  tail call void @lean_dec_ref_cold(ptr noundef nonnull %2) #4
  br label %lean_dec.exit33

lean_dec.exit33:                                  ; preds = %34, %33, %31, %lean_dec.exit34
  %35 = tail call ptr @lean_apply_1(ptr noundef %1, ptr noundef nonnull inttoptr (i64 1 to ptr)) #4
  br label %112

36:                                               ; preds = %lean_obj_tag.exit
  %37 = getelementptr inbounds nuw i8, ptr %6, i64 8
  %38 = load ptr, ptr %37, align 8, !tbaa !10
  %39 = ptrtoint ptr %38 to i64
  %40 = and i64 %39, 1
  %.not = icmp eq i64 %40, 0
  br i1 %.not, label %41, label %lean_inc.exit27

41:                                               ; preds = %36
  %.val.i50 = load i32, ptr %38, align 4, !tbaa !4
  %42 = icmp sgt i32 %.val.i50, 0
  br i1 %42, label %43, label %45, !prof !9

43:                                               ; preds = %41
  %44 = add nuw i32 %.val.i50, 1
  store i32 %44, ptr %38, align 4, !tbaa !4
  br label %lean_inc.exit27

45:                                               ; preds = %41
  %.not.i51 = icmp eq i32 %.val.i50, 0
  br i1 %.not.i51, label %lean_inc.exit27, label %46

46:                                               ; preds = %45
  tail call void @lean_inc_ref_cold(ptr noundef nonnull %38) #4
  br label %lean_inc.exit27

lean_inc.exit27:                                  ; preds = %46, %45, %43, %36
  br i1 %.not.i49, label %47, label %lean_dec.exit32

47:                                               ; preds = %lean_inc.exit27
  %48 = load i32, ptr %6, align 4, !tbaa !4
  %49 = icmp sgt i32 %48, 1
  br i1 %49, label %50, label %52, !prof !9

50:                                               ; preds = %47
  %51 = add nsw i32 %48, -1
  store i32 %51, ptr %6, align 4, !tbaa !4
  br label %lean_dec.exit32

52:                                               ; preds = %47
  %.not.i37 = icmp eq i32 %48, 0
  br i1 %.not.i37, label %lean_dec.exit32, label %53

53:                                               ; preds = %52
  tail call void @lean_dec_ref_cold(ptr noundef nonnull %6) #4
  br label %lean_dec.exit32

lean_dec.exit32:                                  ; preds = %53, %52, %50, %lean_inc.exit27
  br i1 %.not, label %lean_obj_tag.exit55, label %lean_obj_tag.exit55.thread

lean_obj_tag.exit55:                              ; preds = %lean_dec.exit32
  %54 = getelementptr i8, ptr %38, i64 4
  %.val.i54 = load i32, ptr %54, align 4
  %.mask = and i32 %.val.i54, -16777216
  %55 = icmp eq i32 %.mask, 100663296
  br i1 %55, label %58, label %86

lean_obj_tag.exit55.thread:                       ; preds = %lean_dec.exit32
  %56 = and i64 %39, 8589934590
  %57 = icmp eq i64 %56, 12
  br i1 %57, label %58, label %lean_dec.exit29

58:                                               ; preds = %lean_obj_tag.exit55.thread, %lean_obj_tag.exit55
  %59 = ptrtoint ptr %1 to i64
  %60 = and i64 %59, 1
  %.not62 = icmp eq i64 %60, 0
  br i1 %.not62, label %61, label %lean_dec.exit31

61:                                               ; preds = %58
  %62 = load i32, ptr %1, align 4, !tbaa !4
  %63 = icmp sgt i32 %62, 1
  br i1 %63, label %64, label %66, !prof !9

64:                                               ; preds = %61
  %65 = add nsw i32 %62, -1
  store i32 %65, ptr %1, align 4, !tbaa !4
  br label %lean_dec.exit31

66:                                               ; preds = %61
  %.not.i39 = icmp eq i32 %62, 0
  br i1 %.not.i39, label %lean_dec.exit31, label %67

67:                                               ; preds = %66
  tail call void @lean_dec_ref_cold(ptr noundef nonnull %1) #4
  br label %lean_dec.exit31

lean_dec.exit31:                                  ; preds = %67, %66, %64, %58
  %68 = getelementptr inbounds nuw i8, ptr %38, i64 8
  %69 = load ptr, ptr %68, align 8, !tbaa !10
  %70 = ptrtoint ptr %69 to i64
  %71 = and i64 %70, 1
  %.not63 = icmp eq i64 %71, 0
  br i1 %.not63, label %72, label %lean_inc.exit

72:                                               ; preds = %lean_dec.exit31
  %.val.i56 = load i32, ptr %69, align 4, !tbaa !4
  %73 = icmp sgt i32 %.val.i56, 0
  br i1 %73, label %74, label %76, !prof !9

74:                                               ; preds = %72
  %75 = add nuw i32 %.val.i56, 1
  store i32 %75, ptr %69, align 4, !tbaa !4
  br label %lean_inc.exit

76:                                               ; preds = %72
  %.not.i57 = icmp eq i32 %.val.i56, 0
  br i1 %.not.i57, label %lean_inc.exit, label %77

77:                                               ; preds = %76
  tail call void @lean_inc_ref_cold(ptr noundef nonnull %69) #4
  br label %lean_inc.exit

lean_inc.exit:                                    ; preds = %77, %76, %74, %lean_dec.exit31
  br i1 %.not, label %78, label %lean_dec.exit30

78:                                               ; preds = %lean_inc.exit
  %79 = load i32, ptr %38, align 4, !tbaa !4
  %80 = icmp sgt i32 %79, 1
  br i1 %80, label %81, label %83, !prof !9

81:                                               ; preds = %78
  %82 = add nsw i32 %79, -1
  store i32 %82, ptr %38, align 4, !tbaa !4
  br label %lean_dec.exit30

83:                                               ; preds = %78
  %.not.i41 = icmp eq i32 %79, 0
  br i1 %.not.i41, label %lean_dec.exit30, label %84

84:                                               ; preds = %83
  tail call void @lean_dec_ref_cold(ptr noundef nonnull %38) #4
  br label %lean_dec.exit30

lean_dec.exit30:                                  ; preds = %84, %83, %81, %lean_inc.exit
  %85 = tail call ptr @lean_apply_2(ptr noundef %2, ptr noundef %69, ptr noundef %3) #4
  br label %112

86:                                               ; preds = %lean_obj_tag.exit55
  %87 = load i32, ptr %38, align 4, !tbaa !4
  %88 = icmp sgt i32 %87, 1
  br i1 %88, label %89, label %91, !prof !9

89:                                               ; preds = %86
  %90 = add nsw i32 %87, -1
  store i32 %90, ptr %38, align 4, !tbaa !4
  br label %lean_dec.exit29

91:                                               ; preds = %86
  %.not.i43 = icmp eq i32 %87, 0
  br i1 %.not.i43, label %lean_dec.exit29, label %92

92:                                               ; preds = %91
  tail call void @lean_dec_ref_cold(ptr noundef nonnull %38) #4
  br label %lean_dec.exit29

lean_dec.exit29:                                  ; preds = %lean_obj_tag.exit55.thread, %92, %91, %89
  %93 = ptrtoint ptr %3 to i64
  %94 = and i64 %93, 1
  %.not60 = icmp eq i64 %94, 0
  br i1 %.not60, label %95, label %lean_dec.exit28

95:                                               ; preds = %lean_dec.exit29
  %96 = load i32, ptr %3, align 4, !tbaa !4
  %97 = icmp sgt i32 %96, 1
  br i1 %97, label %98, label %100, !prof !9

98:                                               ; preds = %95
  %99 = add nsw i32 %96, -1
  store i32 %99, ptr %3, align 4, !tbaa !4
  br label %lean_dec.exit28

100:                                              ; preds = %95
  %.not.i45 = icmp eq i32 %96, 0
  br i1 %.not.i45, label %lean_dec.exit28, label %101

101:                                              ; preds = %100
  tail call void @lean_dec_ref_cold(ptr noundef nonnull %3) #4
  br label %lean_dec.exit28

lean_dec.exit28:                                  ; preds = %101, %100, %98, %lean_dec.exit29
  %102 = ptrtoint ptr %2 to i64
  %103 = and i64 %102, 1
  %.not61 = icmp eq i64 %103, 0
  br i1 %.not61, label %104, label %lean_dec.exit

104:                                              ; preds = %lean_dec.exit28
  %105 = load i32, ptr %2, align 4, !tbaa !4
  %106 = icmp sgt i32 %105, 1
  br i1 %106, label %107, label %109, !prof !9

107:                                              ; preds = %104
  %108 = add nsw i32 %105, -1
  store i32 %108, ptr %2, align 4, !tbaa !4
  br label %lean_dec.exit

109:                                              ; preds = %104
  %.not.i47 = icmp eq i32 %105, 0
  br i1 %.not.i47, label %lean_dec.exit, label %110

110:                                              ; preds = %109
  tail call void @lean_dec_ref_cold(ptr noundef nonnull %2) #4
  br label %lean_dec.exit

lean_dec.exit:                                    ; preds = %110, %109, %107, %lean_dec.exit28
  %111 = tail call ptr @lean_apply_1(ptr noundef %1, ptr noundef nonnull inttoptr (i64 1 to ptr)) #4
  br label %112

112:                                              ; preds = %lean_dec.exit30, %lean_dec.exit, %lean_dec.exit33
  %.0 = phi ptr [ %35, %lean_dec.exit33 ], [ %85, %lean_dec.exit30 ], [ %111, %lean_dec.exit ]
  ret ptr %.0
}